target datalayout = "e-m:e-p270:32:32-p271:32:32-p272:64:64-i64:64-i128:128-f80:128-n8:16:32:64-S128"
target triple = "x86_64-pc-linux-gnu"

%"class.testing::TestPartResultReporterInterface" = type { ptr }
%"class.testing::ScopedFakeTestPartResultReporter" = type { %"class.testing::TestPartResultReporterInterface", i32, ptr, ptr }

; Function Attrs: mustprogress nounwind uwtable
define linkonce_odr dso_local void @_ZN7testing31TestPartResultReporterInterfaceD2Ev(ptr noundef nonnull align 8 dereferenceable(8) %0) unnamed_addr #7 comdat align 2 {
  %2 = alloca ptr, align 8
  store ptr %0, ptr %2, align 8, !tbaa !407
  ret void
}

; Function Attrs: inlinehint mustprogress nounwind uwtable
define linkonce_odr dso_local void @_ZN7testing31TestPartResultReporterInterfaceC2Ev(ptr noundef nonnull align 8 dereferenceable(8) %0) unnamed_addr #5 comdat align 2 {
  %2 = alloca ptr, align 8
  store ptr %0, ptr %2, align 8, !tbaa !407
  %3 = load ptr, ptr %2, align 8
  store ptr getelementptr inbounds inrange(-16, 24) ({ [5 x ptr] }, ptr @_ZTVN7testing31TestPartResultReporterInterfaceE, i32 0, i32 0, i32 2), ptr %3, align 8, !tbaa !50
  ret void
}

; Function Attrs: mustprogress uwtable
define dso_local void @_ZN7testing32ScopedFakeTestPartResultReporterC2EPNS_19TestPartResultArrayE(ptr noundef nonnull align 8 dereferenceable(32) %0, ptr noundef %1) unnamed_addr #4 align 2 personality ptr @__gxx_personality_v0 {
  %3 = alloca ptr, align 8
  %4 = alloca ptr, align 8
  %5 = alloca ptr, align 8
  %6 = alloca i32, align 4
  store ptr %0, ptr %3, align 8, !tbaa !489
  store ptr %1, ptr %4, align 8, !tbaa !395
  %7 = load ptr, ptr %3, align 8
  call void @_ZN7testing31TestPartResultReporterInterfaceC2Ev(ptr noundef nonnull align 8 dereferenceable(8) %7) #3
  store ptr getelementptr inbounds inrange(-16, 24) ({ [5 x ptr] }, ptr @_ZTVN7testing32ScopedFakeTestPartResultReporterE, i32 0, i32 0, i32 2), ptr %7, align 8, !tbaa !50
  %8 = getelementptr inbounds nuw %"class.testing::ScopedFakeTestPartResultReporter", ptr %7, i32 0, i32 1
  store i32 0, ptr %8, align 8, !tbaa !491
  %9 = getelementptr inbounds nuw %"class.testing::ScopedFakeTestPartResultReporter", ptr %7, i32 0, i32 3
  %10 = load ptr, ptr %4, align 8, !tbaa !395
  store ptr %10, ptr %9, align 8, !tbaa !494
  invoke void @_ZN7testing32ScopedFakeTestPartResultReporter4InitEv(ptr noundef nonnull align 8 dereferenceable(32) %7)
          to label %11 unwind label %12

11:                                               ; preds = %2
  ret void

12:                                               ; preds = %2
  %13 = landingpad { ptr, i32 }
          cleanup
  %14 = extractvalue { ptr, i32 } %13, 0
  store ptr %14, ptr %5, align 8
  %15 = extractvalue { ptr, i32 } %13, 1
  store i32 %15, ptr %6, align 4
  call void @_ZN7testing31TestPartResultReporterInterfaceD2Ev(ptr noundef nonnull align 8 dereferenceable(8) %7) #3
  br label %16

16:                                               ; preds = %12
  %17 = load ptr, ptr %5, align 8
  %18 = load i32, ptr %6, align 4
  %19 = insertvalue { ptr, i32 } poison, ptr %17, 0
  %20 = insertvalue { ptr, i32 } %19, i32 %18, 1
  resume { ptr, i32 } %20
}