; Function Attrs: mustprogress uwtable
define dso_local void @_ZN7testing32ScopedFakeTestPartResultReporterC2EPNS_19TestPartResultArrayE(ptr noundef nonnull align 8 dereferenceable(32) initializes((0, 12), (24, 32)) %0, ptr noundef %1) unnamed_addr #3 align 2 personality ptr @__gxx_personality_v0 {
  store ptr getelementptr inbounds nuw inrange(-16, 24) (i8, ptr @_ZTVN7testing32ScopedFakeTestPartResultReporterE, i64 16), ptr %0, align 8, !tbaa !33
  %3 = getelementptr inbounds nuw i8, ptr %0, i64 8
  store i32 0, ptr %3, align 8, !tbaa !672
  %4 = getelementptr inbounds nuw i8, ptr %0, i64 24
  store ptr %1, ptr %4, align 8, !tbaa !676
  tail call void @_ZN7testing32ScopedFakeTestPartResultReporter4InitEv(ptr noundef nonnull align 8 dereferenceable(32) %0)
  ret void
}